target datalayout = "e-m:e-p270:32:32-p271:32:32-p272:64:64-i64:64-i128:128-f80:128-n8:16:32:64-S128"
target triple = "x86_64-pc-linux-gnu"

%struct.JfrSamplerParams = type { i64, i64, i64, i8 }
%class.JfrAdaptiveSampler = type <{ ptr, %class.JfrPRNG, ptr, ptr, ptr, double, double, i64, i64, i32, [4 x i8] }>
%class.JfrPRNG = type { i64 }

; Function Attrs: mustprogress nounwind uwtable
define linkonce_odr hidden noundef i64 @_Z36compute_accumulated_debt_carry_limitRK16JfrSamplerParams(ptr noundef nonnull align 8 dereferenceable(32) %0) #1 comdat {
  %2 = alloca i64, align 8
  %3 = alloca ptr, align 8
  store ptr %0, ptr %3, align 8
  %4 = load ptr, ptr %3, align 8
  %5 = getelementptr inbounds %struct.JfrSamplerParams, ptr %4, i32 0, i32 1
  %6 = load i64, ptr %5, align 8
  %7 = icmp eq i64 %6, 0
  br i1 %7, label %13, label %8

8:                                                ; preds = %1
  %9 = load ptr, ptr %3, align 8
  %10 = getelementptr inbounds %struct.JfrSamplerParams, ptr %9, i32 0, i32 1
  %11 = load i64, ptr %10, align 8
  %12 = icmp uge i64 %11, 1000
  br i1 %12, label %13, label %14

13:                                               ; preds = %8, %1
  store i64 1, ptr %2, align 8
  br label %19

14:                                               ; preds = %8
  %15 = load ptr, ptr %3, align 8
  %16 = getelementptr inbounds %struct.JfrSamplerParams, ptr %15, i32 0, i32 1
  %17 = load i64, ptr %16, align 8
  %18 = udiv i64 1000, %17
  store i64 %18, ptr %2, align 8
  br label %19

19:                                               ; preds = %14, %13
  %20 = load i64, ptr %2, align 8
  ret i64 %20
}

; Function Attrs: mustprogress nounwind uwtable
define linkonce_odr hidden noundef double @_Z30compute_ewma_alpha_coefficientm(i64 noundef %0) #1 comdat {
  %2 = alloca i64, align 8
  store i64 %0, ptr %2, align 8
  %3 = load i64, ptr %2, align 8
  %4 = icmp ule i64 %3, 1
  br i1 %4, label %5, label %6

5:                                                ; preds = %1
  br label %10

6:                                                ; preds = %1
  %7 = load i64, ptr %2, align 8
  %8 = uitofp i64 %7 to double
  %9 = fdiv double 1.000000e+00, %8
  br label %10

10:                                               ; preds = %6, %5
  %11 = phi double [ 1.000000e+00, %5 ], [ %9, %6 ]
  ret double %11
}

; Function Attrs: mustprogress nounwind uwtable
define hidden void @_ZN18JfrAdaptiveSampler9configureERK16JfrSamplerParams(ptr noundef nonnull align 8 dereferenceable(76) %0, ptr noundef nonnull align 8 dereferenceable(32) %1) #1 align 2 {
  %3 = alloca ptr, align 8
  %4 = alloca ptr, align 8
  store ptr %0, ptr %3, align 8
  store ptr %1, ptr %4, align 8
  %5 = load ptr, ptr %3, align 8
  %6 = getelementptr inbounds %class.JfrAdaptiveSampler, ptr %5, i32 0, i32 5
  store double 0.000000e+00, ptr %6, align 8
  %7 = load ptr, ptr %4, align 8
  %8 = getelementptr inbounds %struct.JfrSamplerParams, ptr %7, i32 0, i32 2
  %9 = load i64, ptr %8, align 8
  %10 = call noundef double @_Z30compute_ewma_alpha_coefficientm(i64 noundef %9)
  %11 = getelementptr inbounds %class.JfrAdaptiveSampler, ptr %5, i32 0, i32 6
  store double %10, ptr %11, align 8
  %12 = load ptr, ptr %4, align 8
  %13 = call noundef i64 @_Z36compute_accumulated_debt_carry_limitRK16JfrSamplerParams(ptr noundef nonnull align 8 dereferenceable(32) %12)
  %14 = getelementptr inbounds %class.JfrAdaptiveSampler, ptr %5, i32 0, i32 7
  store i64 %13, ptr %14, align 8
  %15 = getelementptr inbounds %class.JfrAdaptiveSampler, ptr %5, i32 0, i32 7
  %16 = load i64, ptr %15, align 8
  %17 = getelementptr inbounds %class.JfrAdaptiveSampler, ptr %5, i32 0, i32 8
  store i64 %16, ptr %17, align 8
  %18 = load ptr, ptr %4, align 8
  %19 = getelementptr inbounds %struct.JfrSamplerParams, ptr %18, i32 0, i32 3
  store i8 0, ptr %19, align 8
  ret void
}