; Function Attrs: mustprogress nofree norecurse nosync nounwind willreturn memory(argmem: readwrite) uwtable
define hidden void @_ZN18JfrAdaptiveSampler9configureERK16JfrSamplerParams(ptr nocapture noundef nonnull writeonly align 8 dereferenceable(76) %0, ptr nocapture noundef nonnull align 8 dereferenceable(32) %1) local_unnamed_addr #7 align 2 {
  %3 = getelementptr inbounds i8, ptr %0, i64 40
  store double 0.000000e+00, ptr %3, align 8
  %4 = getelementptr inbounds i8, ptr %1, i64 16
  %5 = load i64, ptr %4, align 8
  %6 = icmp ult i64 %5, 2
  %7 = uitofp i64 %5 to double
  %8 = fdiv double 1.000000e+00, %7
  %9 = select i1 %6, double 1.000000e+00, double %8
  %10 = getelementptr inbounds i8, ptr %0, i64 48
  store double %9, ptr %10, align 8
  %11 = getelementptr inbounds i8, ptr %1, i64 8
  %12 = load i64, ptr %11, align 8
  %13 = add i64 %12, -1000
  %or.cond.i = icmp ult i64 %13, -999
  br i1 %or.cond.i, label %_Z36compute_accumulated_debt_carry_limitRK16JfrSamplerParams.exit, label %14

14:                                               ; preds = %2
  %.rhs.trunc.i = trunc nuw i64 %12 to i16
  %15 = udiv i16 1000, %.rhs.trunc.i
  %.zext.i = zext nneg i16 %15 to i64
  br label %_Z36compute_accumulated_debt_carry_limitRK16JfrSamplerParams.exit

_Z36compute_accumulated_debt_carry_limitRK16JfrSamplerParams.exit: ; preds = %2, %14
  %.0.i = phi i64 [ %.zext.i, %14 ], [ 1, %2 ]
  %16 = getelementptr inbounds i8, ptr %0, i64 56
  store i64 %.0.i, ptr %16, align 8
  %17 = getelementptr inbounds i8, ptr %0, i64 64
  store i64 %.0.i, ptr %17, align 8
  %18 = getelementptr inbounds i8, ptr %1, i64 24
  store i8 0, ptr %18, align 8
  ret void
}